target datalayout = "e-m:e-p270:32:32-p271:32:32-p272:64:64-i64:64-i128:128-f80:128-n8:16:32:64-S128"
target triple = "x86_64-pc-linux-gnu"

%class.TypePtr = type <{ %class.Type.base, [4 x i8], ptr, i32, i32, i32, [4 x i8] }>
%class.Type.base = type <{ ptr, ptr, i32 }>
%class.ciType.base = type <{ %class.ciMetadata, i8 }>
%class.ciMetadata = type { %class.ciBaseObject.base, ptr }
%class.ciBaseObject.base = type <{ ptr, i32 }>
%class.anon.18 = type { i8 }
%class.anon.20 = type { i8 }
%class.anon.22 = type { i8 }
%class.ciKlass = type <{ %class.ciType.base, [7 x i8], ptr, i32, [4 x i8] }>
%class.Klass = type <{ %class.Metadata, i32, i32, i32, i32, ptr, ptr, ptr, [8 x ptr], %class.OopHandle, ptr, ptr, ptr, ptr, ptr, i32, %class.AccessFlags, i64, i64, i8, i8, i16, i16, [2 x i8], i32, [4 x i8] }>
%class.Metadata = type { ptr }
%class.OopHandle = type { ptr }
%class.AccessFlags = type { i32 }

; Function Attrs: mustprogress nounwind uwtable
define linkonce_odr hidden noundef i64 @_ZZN5Klass20layout_helper_offsetEvENKUlvE_clEv(ptr noundef nonnull align 1 dereferenceable(1) %0) #1 comdat align 2 {
  %2 = alloca ptr, align 8
  %3 = alloca [200 x i8], align 16
  %4 = alloca ptr, align 8
  %5 = alloca ptr, align 8
  store ptr %0, ptr %2, align 8
  %6 = getelementptr inbounds [200 x i8], ptr %3, i64 0, i64 0
  store ptr %6, ptr %4, align 8
  %7 = load ptr, ptr %4, align 8
  %8 = getelementptr inbounds %class.Klass, ptr %7, i32 0, i32 1
  store ptr %8, ptr %5, align 8
  %9 = load ptr, ptr %5, align 8
  %10 = getelementptr inbounds [200 x i8], ptr %3, i64 0, i64 0
  %11 = ptrtoint ptr %9 to i64
  %12 = ptrtoint ptr %10 to i64
  %13 = sub i64 %11, %12
  ret i64 %13
}

; Function Attrs: mustprogress nounwind uwtable
define linkonce_odr hidden noundef i64 @_ZZN5Klass19access_flags_offsetEvENKUlvE_clEv(ptr noundef nonnull align 1 dereferenceable(1) %0) #1 comdat align 2 {
  %2 = alloca ptr, align 8
  %3 = alloca [200 x i8], align 16
  %4 = alloca ptr, align 8
  %5 = alloca ptr, align 8
  store ptr %0, ptr %2, align 8
  %6 = getelementptr inbounds [200 x i8], ptr %3, i64 0, i64 0
  store ptr %6, ptr %4, align 8
  %7 = load ptr, ptr %4, align 8
  %8 = getelementptr inbounds %class.Klass, ptr %7, i32 0, i32 16
  store ptr %8, ptr %5, align 8
  %9 = load ptr, ptr %5, align 8
  %10 = getelementptr inbounds [200 x i8], ptr %3, i64 0, i64 0
  %11 = ptrtoint ptr %9 to i64
  %12 = ptrtoint ptr %10 to i64
  %13 = sub i64 %11, %12
  ret i64 %13
}

; Function Attrs: mustprogress nounwind uwtable
define linkonce_odr hidden noundef i32 @_Z11in_ByteSizei(i32 noundef %0) #1 comdat {
  %2 = alloca i32, align 4
  store i32 %0, ptr %2, align 4
  %3 = load i32, ptr %2, align 4
  ret i32 %3
}

; Function Attrs: mustprogress nounwind uwtable
define linkonce_odr hidden noundef i64 @_ZZN5Klass21modifier_flags_offsetEvENKUlvE_clEv(ptr noundef nonnull align 1 dereferenceable(1) %0) #1 comdat align 2 {
  %2 = alloca ptr, align 8
  %3 = alloca [200 x i8], align 16
  %4 = alloca ptr, align 8
  %5 = alloca ptr, align 8
  store ptr %0, ptr %2, align 8
  %6 = getelementptr inbounds [200 x i8], ptr %3, i64 0, i64 0
  store ptr %6, ptr %4, align 8
  %7 = load ptr, ptr %4, align 8
  %8 = getelementptr inbounds %class.Klass, ptr %7, i32 0, i32 3
  store ptr %8, ptr %5, align 8
  %9 = load ptr, ptr %5, align 8
  %10 = getelementptr inbounds [200 x i8], ptr %3, i64 0, i64 0
  %11 = ptrtoint ptr %9 to i64
  %12 = ptrtoint ptr %10 to i64
  %13 = sub i64 %11, %12
  ret i64 %13
}

; Function Attrs: mustprogress nounwind uwtable
define linkonce_odr hidden noundef i32 @_ZN7ciKlass13layout_helperEv(ptr noundef nonnull align 8 dereferenceable(44) %0) #1 comdat align 2 {
  %2 = alloca ptr, align 8
  store ptr %0, ptr %2, align 8
  %3 = load ptr, ptr %2, align 8
  %4 = getelementptr inbounds %class.ciKlass, ptr %3, i32 0, i32 3
  %5 = load i32, ptr %4, align 8
  ret i32 %5
}

; Function Attrs: mustprogress nounwind uwtable
define linkonce_odr hidden noundef i32 @_ZN5Klass20layout_helper_offsetEv() #1 comdat align 2 {
  %1 = alloca %class.anon.22, align 1
  %2 = call noundef i64 @_ZZN5Klass20layout_helper_offsetEvENKUlvE_clEv(ptr noundef nonnull align 1 dereferenceable(1) %1)
  %3 = trunc i64 %2 to i32
  %4 = call noundef i32 @_Z11in_ByteSizei(i32 noundef %3)
  ret i32 %4
}

; Function Attrs: mustprogress nounwind uwtable
define linkonce_odr hidden noundef i32 @_ZN5Klass19access_flags_offsetEv() #1 comdat align 2 {
  %1 = alloca %class.anon.20, align 1
  %2 = call noundef i64 @_ZZN5Klass19access_flags_offsetEvENKUlvE_clEv(ptr noundef nonnull align 1 dereferenceable(1) %1)
  %3 = trunc i64 %2 to i32
  %4 = call noundef i32 @_Z11in_ByteSizei(i32 noundef %3)
  ret i32 %4
}

; Function Attrs: mustprogress nounwind uwtable
define linkonce_odr hidden noundef i32 @_Z8in_bytes8ByteSize(i32 noundef %0) #1 comdat {
  %2 = alloca i32, align 4
  store i32 %0, ptr %2, align 4
  %3 = load i32, ptr %2, align 4
  ret i32 %3
}

; Function Attrs: mustprogress nounwind uwtable
define linkonce_odr hidden noundef i32 @_ZN5Klass21modifier_flags_offsetEv() #1 comdat align 2 {
  %1 = alloca %class.anon.18, align 1
  %2 = call noundef i64 @_ZZN5Klass21modifier_flags_offsetEvENKUlvE_clEv(ptr noundef nonnull align 1 dereferenceable(1) %1)
  %3 = trunc i64 %2 to i32
  %4 = call noundef i32 @_Z11in_ByteSizei(i32 noundef %3)
  ret i32 %4
}

; Function Attrs: mustprogress nounwind uwtable
define linkonce_odr hidden noundef i32 @_ZNK7TypePtr6offsetEv(ptr noundef nonnull align 8 dereferenceable(44) %0) #1 comdat align 2 {
  %2 = alloca ptr, align 8
  store ptr %0, ptr %2, align 8
  %3 = load ptr, ptr %2, align 8
  %4 = getelementptr inbounds %class.TypePtr, ptr %3, i32 0, i32 4
  %5 = load i32, ptr %4, align 4
  ret i32 %5
}

; Function Attrs: mustprogress nounwind uwtable
define hidden noundef ptr @_ZNK8LoadNode22load_array_final_fieldEPK12TypeKlassPtrP7ciKlass(ptr noundef nonnull align 8 dereferenceable(72) %0, ptr noundef %1, ptr noundef %2) #1 align 2 {
  %4 = alloca ptr, align 8
  %5 = alloca ptr, align 8
  %6 = alloca ptr, align 8
  %7 = alloca ptr, align 8
  store ptr %0, ptr %5, align 8
  store ptr %1, ptr %6, align 8
  store ptr %2, ptr %7, align 8
  %8 = load ptr, ptr %6, align 8
  %9 = call noundef i32 @_ZNK7TypePtr6offsetEv(ptr noundef nonnull align 8 dereferenceable(44) %8)
  %10 = call noundef i32 @_ZN5Klass21modifier_flags_offsetEv()
  %11 = call noundef i32 @_Z8in_bytes8ByteSize(i32 noundef %10)
  %12 = icmp eq i32 %9, %11
  br i1 %12, label %13, label %17

13:                                               ; preds = %3
  %14 = load ptr, ptr %7, align 8
  %15 = call noundef i32 @_ZN7ciKlass14modifier_flagsEv(ptr noundef nonnull align 8 dereferenceable(44) %14)
  %16 = call noundef ptr @_ZN7TypeInt4makeEi(i32 noundef %15)
  store ptr %16, ptr %4, align 8
  br label %38

17:                                               ; preds = %3
  %18 = load ptr, ptr %6, align 8
  %19 = call noundef i32 @_ZNK7TypePtr6offsetEv(ptr noundef nonnull align 8 dereferenceable(44) %18)
  %20 = call noundef i32 @_ZN5Klass19access_flags_offsetEv()
  %21 = call noundef i32 @_Z8in_bytes8ByteSize(i32 noundef %20)
  %22 = icmp eq i32 %19, %21
  br i1 %22, label %23, label %27

23:                                               ; preds = %17
  %24 = load ptr, ptr %7, align 8
  %25 = call noundef i32 @_ZN7ciKlass12access_flagsEv(ptr noundef nonnull align 8 dereferenceable(44) %24)
  %26 = call noundef ptr @_ZN7TypeInt4makeEi(i32 noundef %25)
  store ptr %26, ptr %4, align 8
  br label %38

27:                                               ; preds = %17
  %28 = load ptr, ptr %6, align 8
  %29 = call noundef i32 @_ZNK7TypePtr6offsetEv(ptr noundef nonnull align 8 dereferenceable(44) %28)
  %30 = call noundef i32 @_ZN5Klass20layout_helper_offsetEv()
  %31 = call noundef i32 @_Z8in_bytes8ByteSize(i32 noundef %30)
  %32 = icmp eq i32 %29, %31
  br i1 %32, label %33, label %37

33:                                               ; preds = %27
  %34 = load ptr, ptr %7, align 8
  %35 = call noundef i32 @_ZN7ciKlass13layout_helperEv(ptr noundef nonnull align 8 dereferenceable(44) %34)
  %36 = call noundef ptr @_ZN7TypeInt4makeEi(i32 noundef %35)
  store ptr %36, ptr %4, align 8
  br label %38

37:                                               ; preds = %27
  store ptr null, ptr %4, align 8
  br label %38

38:                                               ; preds = %37, %33, %23, %13
  %39 = load ptr, ptr %4, align 8
  ret ptr %39
}