; Function Attrs: mustprogress nounwind uwtable
define hidden noundef ptr @_ZNK8LoadNode22load_array_final_fieldEPK12TypeKlassPtrP7ciKlass(ptr nocapture nonnull readnone align 8 %0, ptr nocapture noundef readonly %1, ptr noundef %2) local_unnamed_addr #1 align 2 {
  %4 = getelementptr inbounds i8, ptr %1, i64 36
  %5 = load i32, ptr %4, align 4
  switch i32 %5, label %14 [
    i32 16, label %6
    i32 164, label %8
    i32 8, label %10
  ]

6:                                                ; preds = %3
  %7 = tail call noundef i32 @_ZN7ciKlass14modifier_flagsEv(ptr noundef nonnull align 8 dereferenceable(44) %2) #13
  br label %.sink.split

8:                                                ; preds = %3
  %9 = tail call noundef i32 @_ZN7ciKlass12access_flagsEv(ptr noundef nonnull align 8 dereferenceable(44) %2) #13
  br label %.sink.split

10:                                               ; preds = %3
  %11 = getelementptr inbounds i8, ptr %2, i64 40
  %12 = load i32, ptr %11, align 8
  br label %.sink.split

.sink.split:                                      ; preds = %6, %8, %10
  %.sink = phi i32 [ %12, %10 ], [ %9, %8 ], [ %7, %6 ]
  %13 = tail call noundef ptr @_ZN7TypeInt4makeEi(i32 noundef %.sink) #13
  br label %14

14:                                               ; preds = %.sink.split, %3
  %.0 = phi ptr [ null, %3 ], [ %13, %.sink.split ]
  ret ptr %.0
}